; Function Attrs: nounwind uwtable
define internal i32 @_sort_step_by_user_name(ptr noundef readonly captures(none) %0, ptr noundef readonly captures(none) %1) #0 {
  %.val = load ptr, ptr %0, align 8
  %3 = load ptr, ptr %1, align 8
  %4 = getelementptr inbounds nuw i8, ptr %.val, i64 256
  %5 = load i32, ptr %4, align 8
  %6 = tail call ptr @uid_to_string_cached(i32 noundef %5) #11
  %7 = getelementptr inbounds nuw i8, ptr %3, i64 256
  %8 = load i32, ptr %7, align 8
  %9 = tail call ptr @uid_to_string_cached(i32 noundef %8) #11
  %10 = tail call i32 @xstrcmp(ptr noundef %6, ptr noundef %9) #11
  %.b5 = load i1, ptr @reverse_order, align 1
  %11 = sub nsw i32 0, %10
  %spec.select = select i1 %.b5, i32 %11, i32 %10
  ret i32 %spec.select
}